; Function Attrs: nounwind uwtable
define internal fastcc noalias ptr @stbi__malloc_mad2(i32 noundef %0, i32 noundef %1) unnamed_addr #0 {
  %3 = or i32 %1, %0
  %or.cond.not.i.i = icmp sgt i32 %3, -1
  br i1 %or.cond.not.i.i, label %4, label %stbi__mad2sizes_valid.exit.thread

4:                                                ; preds = %2
  %5 = icmp eq i32 %1, 0
  br i1 %5, label %stbi__mad2sizes_valid.exit._crit_edge, label %stbi__mul2sizes_valid.exit.i

stbi__mul2sizes_valid.exit.i:                     ; preds = %4
  %6 = udiv i32 2147483647, %1
  %.not10.i = icmp sgt i32 %0, %6
  %7 = mul nsw i32 %1, %0
  %8 = icmp sgt i32 %7, 2147483632
  %or.cond = select i1 %.not10.i, i1 true, i1 %8
  br i1 %or.cond, label %stbi__mad2sizes_valid.exit.thread, label %stbi__mad2sizes_valid.exit._crit_edge

stbi__mad2sizes_valid.exit._crit_edge:            ; preds = %4, %stbi__mul2sizes_valid.exit.i
  %.pre-phi = phi i32 [ %7, %stbi__mul2sizes_valid.exit.i ], [ 0, %4 ]
  %9 = add nsw i32 %.pre-phi, 15
  %10 = sext i32 %9 to i64
  %11 = tail call noalias ptr @SDL_malloc_REAL(i64 noundef range(i64 -2147483648, 4294967296) %10) #11
  br label %stbi__mad2sizes_valid.exit.thread

stbi__mad2sizes_valid.exit.thread:                ; preds = %2, %stbi__mul2sizes_valid.exit.i, %stbi__mad2sizes_valid.exit._crit_edge
  %.0 = phi ptr [ %11, %stbi__mad2sizes_valid.exit._crit_edge ], [ null, %stbi__mul2sizes_valid.exit.i ], [ null, %2 ]
  ret ptr %.0
}